; Function Attrs: mustprogress uwtable
define hidden void @_ZN10ODDLParser4TextC2EPKcm(ptr noundef nonnull writeonly align 8 captures(none) dereferenceable(24) initializes((0, 24)) %0, ptr noundef readonly captures(none) %1, i64 noundef %2) unnamed_addr #0 align 2 {
_ZN10ODDLParser4Text5clearEv.exit.i:
  %.not.i = icmp eq i64 %2, 0
  tail call void @llvm.memset.p0.i64(ptr noundef nonnull align 8 dereferenceable(24) %0, i8 0, i64 24, i1 false)
  br i1 %.not.i, label %_ZN10ODDLParser4Text3setEPKcm.exit, label %3

3:                                                ; preds = %_ZN10ODDLParser4Text5clearEv.exit.i
  %4 = getelementptr inbounds nuw i8, ptr %0, i64 16
  %5 = getelementptr inbounds nuw i8, ptr %0, i64 8
  store i64 %2, ptr %5, align 8
  %6 = add i64 %2, 1
  store i64 %6, ptr %0, align 8
  %7 = tail call noalias noundef nonnull ptr @_Znam(i64 noundef %6) #11
  store ptr %7, ptr %4, align 8
  %8 = tail call ptr @strncpy(ptr noundef nonnull %7, ptr noundef readonly %1, i64 noundef %2) #12
  %9 = getelementptr inbounds nuw i8, ptr %7, i64 %2
  store i8 0, ptr %9, align 1
  br label %_ZN10ODDLParser4Text3setEPKcm.exit

_ZN10ODDLParser4Text3setEPKcm.exit:               ; preds = %_ZN10ODDLParser4Text5clearEv.exit.i, %3
  ret void
}